; Function Attrs: mustprogress nofree norecurse nosync nounwind willreturn memory(argmem: readwrite) uwtable
define hidden void @_ZN18OpenImageIO_v2_6_08PSDInput13set_type_descEv(ptr nocapture noundef nonnull align 8 dereferenceable(840) %this) local_unnamed_addr #10 align 2 {
entry:
  %depth = getelementptr inbounds i8, ptr %this, i64 672
  %0 = load i16, ptr %depth, align 8
  switch i16 %0, label %sw.epilog [
    i16 1, label %sw.epilog.sink.split
    i16 8, label %sw.epilog.sink.split
    i16 16, label %sw.bb2
    i16 32, label %sw.bb5
  ]

sw.bb2:                                           ; preds = %entry
  br label %sw.epilog.sink.split

sw.bb5:                                           ; preds = %entry
  br label %sw.epilog.sink.split

sw.epilog.sink.split:                             ; preds = %entry, %entry, %sw.bb2, %sw.bb5
  %.sink = phi i64 [ 267, %sw.bb5 ], [ 260, %sw.bb2 ], [ 258, %entry ], [ 258, %entry ]
  %m_type_desc7 = getelementptr inbounds i8, ptr %this, i64 572
  store i64 %.sink, ptr %m_type_desc7, align 4
  br label %sw.epilog

sw.epilog:                                        ; preds = %sw.epilog.sink.split, %entry
  ret void
}